target datalayout = "e-m:e-p270:32:32-p271:32:32-p272:64:64-i64:64-i128:128-f80:128-n8:16:32:64-S128"
target triple = "x86_64-pc-linux-gnu"

%struct._object = type { %union.anon, ptr }
%union.anon = type { i64 }
%struct.PyVarObject = type { %struct._object, i64 }

@_Py_NoneStruct = external global %struct._object, align 8

; Function Attrs: nounwind uwtable
define internal i64 @keep_top_bit(i64 noundef %0) #0 {
  %2 = alloca i64, align 8
  %3 = alloca i32, align 4
  store i64 %0, ptr %2, align 8, !tbaa !10
  call void @llvm.lifetime.start.p0(i64 4, ptr %3) #5
  store i32 0, ptr %3, align 4, !tbaa !28
  br label %4

4:                                                ; preds = %7, %1
  %5 = load i64, ptr %2, align 8, !tbaa !10
  %6 = icmp sgt i64 %5, 1
  br i1 %6, label %7, label %12

7:                                                ; preds = %4
  %8 = load i64, ptr %2, align 8, !tbaa !10
  %9 = ashr i64 %8, 1
  store i64 %9, ptr %2, align 8, !tbaa !10
  %10 = load i32, ptr %3, align 4, !tbaa !28
  %11 = add i32 %10, 1
  store i32 %11, ptr %3, align 4, !tbaa !28
  br label %4, !llvm.loop !37

12:                                               ; preds = %4
  %13 = load i64, ptr %2, align 8, !tbaa !10
  %14 = load i32, ptr %3, align 4, !tbaa !28
  %15 = zext i32 %14 to i64
  %16 = shl i64 %13, %15
  call void @llvm.lifetime.end.p0(i64 4, ptr %3) #5
  ret i64 %16
}

; Function Attrs: inlinehint nounwind uwtable
define internal i64 @Py_SIZE(ptr noundef %0) #3 {
  %2 = alloca ptr, align 8
  store ptr %0, ptr %2, align 8, !tbaa !3
  %3 = load ptr, ptr %2, align 8, !tbaa !3
  %4 = getelementptr inbounds nuw %struct.PyVarObject, ptr %3, i32 0, i32 1
  %5 = load i64, ptr %4, align 8, !tbaa !32
  ret i64 %5
}

; Function Attrs: nounwind uwtable
define internal ptr @cache_friendly_heapify(ptr noundef %0, ptr noundef %1) #0 {
  %3 = alloca ptr, align 8
  %4 = alloca ptr, align 8
  %5 = alloca ptr, align 8
  %6 = alloca i64, align 8
  %7 = alloca i64, align 8
  %8 = alloca i64, align 8
  %9 = alloca i64, align 8
  %10 = alloca i64, align 8
  %11 = alloca i32, align 4
  store ptr %0, ptr %4, align 8, !tbaa !3
  store ptr %1, ptr %5, align 8, !tbaa !25
  call void @llvm.lifetime.start.p0(i64 8, ptr %6) #5
  call void @llvm.lifetime.start.p0(i64 8, ptr %7) #5
  call void @llvm.lifetime.start.p0(i64 8, ptr %8) #5
  call void @llvm.lifetime.start.p0(i64 8, ptr %9) #5
  call void @llvm.lifetime.start.p0(i64 8, ptr %10) #5
  %12 = load ptr, ptr %4, align 8, !tbaa !3
  %13 = call i64 @PyList_GET_SIZE(ptr noundef %12)
  %14 = ashr i64 %13, 1
  store i64 %14, ptr %8, align 8, !tbaa !10
  %15 = load i64, ptr %8, align 8, !tbaa !10
  %16 = add i64 %15, 1
  %17 = call i64 @keep_top_bit(i64 noundef %16)
  %18 = sub i64 %17, 1
  store i64 %18, ptr %10, align 8, !tbaa !10
  %19 = load i64, ptr %8, align 8, !tbaa !10
  %20 = ashr i64 %19, 1
  store i64 %20, ptr %9, align 8, !tbaa !10
  %21 = load i64, ptr %10, align 8, !tbaa !10
  %22 = sub i64 %21, 1
  store i64 %22, ptr %6, align 8, !tbaa !10
  br label %23

23:                                               ; preds = %46, %2
  %24 = load i64, ptr %6, align 8, !tbaa !10
  %25 = load i64, ptr %9, align 8, !tbaa !10
  %26 = icmp sge i64 %24, %25
  br i1 %26, label %27, label %49

27:                                               ; preds = %23
  %28 = load i64, ptr %6, align 8, !tbaa !10
  store i64 %28, ptr %7, align 8, !tbaa !10
  br label %29

29:                                               ; preds = %42, %27
  br label %30

30:                                               ; preds = %29
  %31 = load ptr, ptr %5, align 8, !tbaa !25
  %32 = load ptr, ptr %4, align 8, !tbaa !3
  %33 = load i64, ptr %7, align 8, !tbaa !10
  %34 = call i32 %31(ptr noundef %32, i64 noundef %33)
  %35 = icmp ne i32 %34, 0
  br i1 %35, label %36, label %37

36:                                               ; preds = %30
  store ptr null, ptr %3, align 8
  store i32 1, ptr %11, align 4
  br label %79

37:                                               ; preds = %30
  %38 = load i64, ptr %7, align 8, !tbaa !10
  %39 = and i64 %38, 1
  %40 = icmp ne i64 %39, 0
  br i1 %40, label %42, label %41

41:                                               ; preds = %37
  br label %45

42:                                               ; preds = %37
  %43 = load i64, ptr %7, align 8, !tbaa !10
  %44 = ashr i64 %43, 1
  store i64 %44, ptr %7, align 8, !tbaa !10
  br label %29

45:                                               ; preds = %41
  br label %46

46:                                               ; preds = %45
  %47 = load i64, ptr %6, align 8, !tbaa !10
  %48 = add i64 %47, -1
  store i64 %48, ptr %6, align 8, !tbaa !10
  br label %23, !llvm.loop !35

49:                                               ; preds = %23
  %50 = load i64, ptr %8, align 8, !tbaa !10
  %51 = sub i64 %50, 1
  store i64 %51, ptr %6, align 8, !tbaa !10
  br label %52

52:                                               ; preds = %75, %49
  %53 = load i64, ptr %6, align 8, !tbaa !10
  %54 = load i64, ptr %10, align 8, !tbaa !10
  %55 = icmp sge i64 %53, %54
  br i1 %55, label %56, label %78

56:                                               ; preds = %52
  %57 = load i64, ptr %6, align 8, !tbaa !10
  store i64 %57, ptr %7, align 8, !tbaa !10
  br label %58

58:                                               ; preds = %71, %56
  br label %59

59:                                               ; preds = %58
  %60 = load ptr, ptr %5, align 8, !tbaa !25
  %61 = load ptr, ptr %4, align 8, !tbaa !3
  %62 = load i64, ptr %7, align 8, !tbaa !10
  %63 = call i32 %60(ptr noundef %61, i64 noundef %62)
  %64 = icmp ne i32 %63, 0
  br i1 %64, label %65, label %66

65:                                               ; preds = %59
  store ptr null, ptr %3, align 8
  store i32 1, ptr %11, align 4
  br label %79

66:                                               ; preds = %59
  %67 = load i64, ptr %7, align 8, !tbaa !10
  %68 = and i64 %67, 1
  %69 = icmp ne i64 %68, 0
  br i1 %69, label %71, label %70

70:                                               ; preds = %66
  br label %74

71:                                               ; preds = %66
  %72 = load i64, ptr %7, align 8, !tbaa !10
  %73 = ashr i64 %72, 1
  store i64 %73, ptr %7, align 8, !tbaa !10
  br label %58

74:                                               ; preds = %70
  br label %75

75:                                               ; preds = %74
  %76 = load i64, ptr %6, align 8, !tbaa !10
  %77 = add i64 %76, -1
  store i64 %77, ptr %6, align 8, !tbaa !10
  br label %52, !llvm.loop !36

78:                                               ; preds = %52
  store ptr @_Py_NoneStruct, ptr %3, align 8
  store i32 1, ptr %11, align 4
  br label %79

79:                                               ; preds = %78, %65, %36
  call void @llvm.lifetime.end.p0(i64 8, ptr %10) #5
  call void @llvm.lifetime.end.p0(i64 8, ptr %9) #5
  call void @llvm.lifetime.end.p0(i64 8, ptr %8) #5
  call void @llvm.lifetime.end.p0(i64 8, ptr %7) #5
  call void @llvm.lifetime.end.p0(i64 8, ptr %6) #5
  %80 = load ptr, ptr %3, align 8
  ret ptr %80
}

; Function Attrs: inlinehint nounwind uwtable
define internal i64 @PyList_GET_SIZE(ptr noundef %0) #3 {
  %2 = alloca ptr, align 8
  %3 = alloca ptr, align 8
  store ptr %0, ptr %2, align 8, !tbaa !3
  call void @llvm.lifetime.start.p0(i64 8, ptr %3) #5
  %4 = load ptr, ptr %2, align 8, !tbaa !3
  store ptr %4, ptr %3, align 8, !tbaa !25
  %5 = load ptr, ptr %3, align 8, !tbaa !25
  %6 = call i64 @Py_SIZE(ptr noundef %5)
  call void @llvm.lifetime.end.p0(i64 8, ptr %3) #5
  ret i64 %6
}

; Function Attrs: nounwind uwtable
define internal ptr @heapify_internal(ptr noundef %0, ptr noundef %1) #0 {
  %3 = alloca ptr, align 8
  %4 = alloca ptr, align 8
  %5 = alloca ptr, align 8
  %6 = alloca i64, align 8
  %7 = alloca i64, align 8
  %8 = alloca i32, align 4
  store ptr %0, ptr %4, align 8, !tbaa !3
  store ptr %1, ptr %5, align 8, !tbaa !25
  call void @llvm.lifetime.start.p0(i64 8, ptr %6) #5
  call void @llvm.lifetime.start.p0(i64 8, ptr %7) #5
  %9 = load ptr, ptr %4, align 8, !tbaa !3
  %10 = call i64 @PyList_GET_SIZE(ptr noundef %9)
  store i64 %10, ptr %7, align 8, !tbaa !10
  %11 = load i64, ptr %7, align 8, !tbaa !10
  %12 = icmp sgt i64 %11, 2500
  br i1 %12, label %13, label %17

13:                                               ; preds = %2
  %14 = load ptr, ptr %4, align 8, !tbaa !3
  %15 = load ptr, ptr %5, align 8, !tbaa !25
  %16 = call ptr @cache_friendly_heapify(ptr noundef %14, ptr noundef %15)
  store ptr %16, ptr %3, align 8
  store i32 1, ptr %8, align 4
  br label %36

17:                                               ; preds = %2
  %18 = load i64, ptr %7, align 8, !tbaa !10
  %19 = ashr i64 %18, 1
  %20 = sub i64 %19, 1
  store i64 %20, ptr %6, align 8, !tbaa !10
  br label %21

21:                                               ; preds = %32, %17
  %22 = load i64, ptr %6, align 8, !tbaa !10
  %23 = icmp sge i64 %22, 0
  br i1 %23, label %24, label %35

24:                                               ; preds = %21
  %25 = load ptr, ptr %5, align 8, !tbaa !25
  %26 = load ptr, ptr %4, align 8, !tbaa !3
  %27 = load i64, ptr %6, align 8, !tbaa !10
  %28 = call i32 %25(ptr noundef %26, i64 noundef %27)
  %29 = icmp ne i32 %28, 0
  br i1 %29, label %30, label %31

30:                                               ; preds = %24
  store ptr null, ptr %3, align 8
  store i32 1, ptr %8, align 4
  br label %36

31:                                               ; preds = %24
  br label %32

32:                                               ; preds = %31
  %33 = load i64, ptr %6, align 8, !tbaa !10
  %34 = add i64 %33, -1
  store i64 %34, ptr %6, align 8, !tbaa !10
  br label %21, !llvm.loop !34

35:                                               ; preds = %21
  store ptr @_Py_NoneStruct, ptr %3, align 8
  store i32 1, ptr %8, align 4
  br label %36

36:                                               ; preds = %35, %30, %13
  call void @llvm.lifetime.end.p0(i64 8, ptr %7) #5
  call void @llvm.lifetime.end.p0(i64 8, ptr %6) #5
  %37 = load ptr, ptr %3, align 8
  ret ptr %37
}