; Function Attrs: nounwind uwtable
define internal fastcc noundef ptr @heapify_internal(ptr noundef %0, ptr noundef readonly captures(none) %1) unnamed_addr #0 {
  %3 = getelementptr i8, ptr %0, i64 16
  %.val = load i64, ptr %3, align 8, !tbaa !21
  %4 = icmp sgt i64 %.val, 2500
  br i1 %4, label %5, label %28

5:                                                ; preds = %2
  %6 = lshr i64 %.val, 1
  %7 = add nuw nsw i64 %6, 1
  br label %.lr.ph.i.i

.lr.ph.i.i:                                       ; preds = %5, %.lr.ph.i.i
  %.07.i.i = phi i32 [ %9, %.lr.ph.i.i ], [ 0, %5 ]
  %.056.i.i = phi i64 [ %8, %.lr.ph.i.i ], [ %7, %5 ]
  %8 = lshr i64 %.056.i.i, 1
  %9 = add nuw nsw i32 %.07.i.i, 1
  %10 = icmp samesign ugt i64 %.056.i.i, 3
  br i1 %10, label %.lr.ph.i.i, label %._crit_edge.loopexit.i.i, !llvm.loop !30

._crit_edge.loopexit.i.i:                         ; preds = %.lr.ph.i.i
  %11 = zext nneg i32 %9 to i64
  %12 = shl nuw i64 %8, %11
  %13 = add i64 %12, -1
  %14 = lshr i64 %.val, 2
  %15 = add i64 %12, -2
  %.not39.i = icmp slt i64 %15, %14
  br i1 %.not39.i, label %.preheader32.i, label %.preheader34.i

.preheader34.i:                                   ; preds = %._crit_edge.loopexit.i.i, %21
  %.02340.i = phi i64 [ %22, %21 ], [ %15, %._crit_edge.loopexit.i.i ]
  %16 = tail call i32 %1(ptr noundef %0, i64 noundef %.02340.i) #2, !callees !26
  %.not2937.i = icmp eq i32 %16, 0
  br i1 %.not2937.i, label %.lr.ph.i, label %cache_friendly_heapify.exit

.preheader32.i:                                   ; preds = %21, %._crit_edge.loopexit.i.i
  %.not2645.not.i = icmp sgt i64 %6, %13
  br i1 %.not2645.not.i, label %.preheader.preheader.i, label %cache_friendly_heapify.exit

.preheader.preheader.i:                           ; preds = %.preheader32.i
  %.144.i = add nsw i64 %6, -1
  br label %.preheader.i

17:                                               ; preds = %.lr.ph.i
  %18 = ashr i64 %.02438.i, 1
  %19 = tail call i32 %1(ptr noundef %0, i64 noundef %18) #2, !callees !26
  %.not29.i = icmp eq i32 %19, 0
  br i1 %.not29.i, label %.lr.ph.i, label %cache_friendly_heapify.exit

.lr.ph.i:                                         ; preds = %.preheader34.i, %17
  %.02438.i = phi i64 [ %18, %17 ], [ %.02340.i, %.preheader34.i ]
  %20 = and i64 %.02438.i, 1
  %.not30.i = icmp eq i64 %20, 0
  br i1 %.not30.i, label %21, label %17

21:                                               ; preds = %.lr.ph.i
  %22 = add nsw i64 %.02340.i, -1
  %.not.not.i = icmp sgt i64 %.02340.i, %14
  br i1 %.not.not.i, label %.preheader34.i, label %.preheader32.i, !llvm.loop !31

.loopexit31.i:                                    ; preds = %.lr.ph43.i
  %.1.i = add i64 %.146.i, -1
  %.not26.i = icmp slt i64 %.1.i, %13
  br i1 %.not26.i, label %cache_friendly_heapify.exit, label %.preheader.i, !llvm.loop !32

.preheader.i:                                     ; preds = %.loopexit31.i, %.preheader.preheader.i
  %.146.i = phi i64 [ %.1.i, %.loopexit31.i ], [ %.144.i, %.preheader.preheader.i ]
  %23 = tail call i32 %1(ptr noundef %0, i64 noundef %.146.i) #2, !callees !26
  %.not2741.i = icmp eq i32 %23, 0
  br i1 %.not2741.i, label %.lr.ph43.i, label %cache_friendly_heapify.exit

24:                                               ; preds = %.lr.ph43.i
  %25 = ashr i64 %.12542.i, 1
  %26 = tail call i32 %1(ptr noundef %0, i64 noundef %25) #2, !callees !26
  %.not27.i = icmp eq i32 %26, 0
  br i1 %.not27.i, label %.lr.ph43.i, label %cache_friendly_heapify.exit

.lr.ph43.i:                                       ; preds = %.preheader.i, %24
  %.12542.i = phi i64 [ %25, %24 ], [ %.146.i, %.preheader.i ]
  %27 = and i64 %.12542.i, 1
  %.not28.i = icmp eq i64 %27, 0
  br i1 %.not28.i, label %.loopexit31.i, label %24

28:                                               ; preds = %2
  %29 = ashr i64 %.val, 1
  br label %30

30:                                               ; preds = %32, %28
  %.010.in = phi i64 [ %29, %28 ], [ %.010, %32 ]
  %31 = icmp sgt i64 %.010.in, 0
  br i1 %31, label %32, label %cache_friendly_heapify.exit

32:                                               ; preds = %30
  %.010 = add nsw i64 %.010.in, -1
  %33 = tail call i32 %1(ptr noundef %0, i64 noundef %.010) #2, !callees !26
  %.not = icmp eq i32 %33, 0
  br i1 %.not, label %30, label %cache_friendly_heapify.exit, !llvm.loop !33

cache_friendly_heapify.exit:                      ; preds = %30, %32, %.preheader34.i, %17, %.preheader.i, %.loopexit31.i, %24, %.preheader32.i
  %.0 = phi ptr [ @_Py_NoneStruct, %.preheader32.i ], [ null, %24 ], [ @_Py_NoneStruct, %.loopexit31.i ], [ null, %.preheader.i ], [ null, %17 ], [ null, %.preheader34.i ], [ @_Py_NoneStruct, %30 ], [ null, %32 ]
  ret ptr %.0
}